target datalayout = "e-m:e-p270:32:32-p271:32:32-p272:64:64-i64:64-i128:128-f80:128-n8:16:32:64-S128"
target triple = "x86_64-pc-linux-gnu"

; Function Attrs: nounwind uwtable
define ptr @lv_memmove(ptr noundef %0, ptr noundef %1, i64 noundef %2) #0 {
  %4 = alloca ptr, align 8
  %5 = alloca ptr, align 8
  %6 = alloca ptr, align 8
  %7 = alloca i64, align 8
  %8 = alloca ptr, align 8
  %9 = alloca ptr, align 8
  %10 = alloca ptr, align 8
  %11 = alloca ptr, align 8
  store ptr %0, ptr %5, align 8, !tbaa !3
  store ptr %1, ptr %6, align 8, !tbaa !3
  store i64 %2, ptr %7, align 8, !tbaa !7
  %12 = load ptr, ptr %5, align 8, !tbaa !3
  %13 = load ptr, ptr %6, align 8, !tbaa !3
  %14 = icmp ult ptr %12, %13
  br i1 %14, label %21, label %15

15:                                               ; preds = %3
  %16 = load ptr, ptr %5, align 8, !tbaa !3
  %17 = load ptr, ptr %6, align 8, !tbaa !3
  %18 = load i64, ptr %7, align 8, !tbaa !7
  %19 = getelementptr inbounds nuw i8, ptr %17, i64 %18
  %20 = icmp ugt ptr %16, %19
  br i1 %20, label %21, label %26

21:                                               ; preds = %15, %3
  %22 = load ptr, ptr %5, align 8, !tbaa !3
  %23 = load ptr, ptr %6, align 8, !tbaa !3
  %24 = load i64, ptr %7, align 8, !tbaa !7
  %25 = call ptr @lv_memcpy(ptr noundef %22, ptr noundef %23, i64 noundef %24)
  store ptr %25, ptr %4, align 8
  br label %66

26:                                               ; preds = %15
  %27 = load ptr, ptr %5, align 8, !tbaa !3
  %28 = load ptr, ptr %6, align 8, !tbaa !3
  %29 = icmp ugt ptr %27, %28
  br i1 %29, label %30, label %50

30:                                               ; preds = %26
  call void @llvm.lifetime.start.p0(i64 8, ptr %8) #3
  %31 = load ptr, ptr %5, align 8, !tbaa !3
  %32 = load i64, ptr %7, align 8, !tbaa !7
  %33 = getelementptr inbounds nuw i8, ptr %31, i64 %32
  %34 = getelementptr inbounds i8, ptr %33, i64 -1
  store ptr %34, ptr %8, align 8, !tbaa !3
  call void @llvm.lifetime.start.p0(i64 8, ptr %9) #3
  %35 = load ptr, ptr %6, align 8, !tbaa !3
  %36 = load i64, ptr %7, align 8, !tbaa !7
  %37 = getelementptr inbounds nuw i8, ptr %35, i64 %36
  %38 = getelementptr inbounds i8, ptr %37, i64 -1
  store ptr %38, ptr %9, align 8, !tbaa !3
  br label %39

39:                                               ; preds = %43, %30
  %40 = load i64, ptr %7, align 8, !tbaa !7
  %41 = add i64 %40, -1
  store i64 %41, ptr %7, align 8, !tbaa !7
  %42 = icmp ne i64 %40, 0
  br i1 %42, label %43, label %49

43:                                               ; preds = %39
  %44 = load ptr, ptr %9, align 8, !tbaa !3
  %45 = getelementptr inbounds i8, ptr %44, i32 -1
  store ptr %45, ptr %9, align 8, !tbaa !3
  %46 = load i8, ptr %44, align 1, !tbaa !9
  %47 = load ptr, ptr %8, align 8, !tbaa !3
  %48 = getelementptr inbounds i8, ptr %47, i32 -1
  store ptr %48, ptr %8, align 8, !tbaa !3
  store i8 %46, ptr %47, align 1, !tbaa !9
  br label %39, !llvm.loop !22

49:                                               ; preds = %39
  call void @llvm.lifetime.end.p0(i64 8, ptr %9) #3
  call void @llvm.lifetime.end.p0(i64 8, ptr %8) #3
  br label %64

50:                                               ; preds = %26
  call void @llvm.lifetime.start.p0(i64 8, ptr %10) #3
  %51 = load ptr, ptr %5, align 8, !tbaa !3
  store ptr %51, ptr %10, align 8, !tbaa !3
  call void @llvm.lifetime.start.p0(i64 8, ptr %11) #3
  %52 = load ptr, ptr %6, align 8, !tbaa !3
  store ptr %52, ptr %11, align 8, !tbaa !3
  br label %53

53:                                               ; preds = %57, %50
  %54 = load i64, ptr %7, align 8, !tbaa !7
  %55 = add i64 %54, -1
  store i64 %55, ptr %7, align 8, !tbaa !7
  %56 = icmp ne i64 %54, 0
  br i1 %56, label %57, label %63

57:                                               ; preds = %53
  %58 = load ptr, ptr %11, align 8, !tbaa !3
  %59 = getelementptr inbounds nuw i8, ptr %58, i32 1
  store ptr %59, ptr %11, align 8, !tbaa !3
  %60 = load i8, ptr %58, align 1, !tbaa !9
  %61 = load ptr, ptr %10, align 8, !tbaa !3
  %62 = getelementptr inbounds nuw i8, ptr %61, i32 1
  store ptr %62, ptr %10, align 8, !tbaa !3
  store i8 %60, ptr %61, align 1, !tbaa !9
  br label %53, !llvm.loop !23

63:                                               ; preds = %53
  call void @llvm.lifetime.end.p0(i64 8, ptr %11) #3
  call void @llvm.lifetime.end.p0(i64 8, ptr %10) #3
  br label %64

64:                                               ; preds = %63, %49
  %65 = load ptr, ptr %5, align 8, !tbaa !3
  store ptr %65, ptr %4, align 8
  br label %66

66:                                               ; preds = %64, %21
  %67 = load ptr, ptr %4, align 8
  ret ptr %67
}