; Function Attrs: nofree norecurse nosync nounwind memory(argmem: readwrite) uwtable
define noundef ptr @lv_memmove(ptr noundef returned %0, ptr noundef %1, i64 noundef %2) local_unnamed_addr #0 {
  %4 = icmp ult ptr %0, %1
  br i1 %4, label %8, label %5

5:                                                ; preds = %3
  %6 = getelementptr inbounds nuw i8, ptr %1, i64 %2
  %7 = icmp ugt ptr %0, %6
  br i1 %7, label %8, label %10

8:                                                ; preds = %5, %3
  %9 = tail call ptr @lv_memcpy(ptr noundef %0, ptr noundef %1, i64 noundef %2)
  br label %.loopexit

10:                                               ; preds = %5
  %11 = icmp ugt ptr %0, %1
  %.not3138 = icmp eq i64 %2, 0
  br i1 %11, label %12, label %.preheader

.preheader:                                       ; preds = %10
  br i1 %.not3138, label %.loopexit, label %.lr.ph

12:                                               ; preds = %10
  br i1 %.not3138, label %.loopexit, label %.lr.ph42.preheader

.lr.ph42.preheader:                               ; preds = %12
  %13 = getelementptr inbounds nuw i8, ptr %0, i64 %2
  br label %.lr.ph42

.lr.ph42:                                         ; preds = %.lr.ph42.preheader, %.lr.ph42
  %.pn41 = phi ptr [ %.024, %.lr.ph42 ], [ %6, %.lr.ph42.preheader ]
  %.pn3240 = phi ptr [ %.025, %.lr.ph42 ], [ %13, %.lr.ph42.preheader ]
  %.02639 = phi i64 [ %14, %.lr.ph42 ], [ %2, %.lr.ph42.preheader ]
  %.025 = getelementptr inbounds i8, ptr %.pn3240, i64 -1
  %.024 = getelementptr inbounds i8, ptr %.pn41, i64 -1
  %14 = add i64 %.02639, -1
  %15 = load i8, ptr %.024, align 1, !tbaa !3
  store i8 %15, ptr %.025, align 1, !tbaa !3
  %.not31 = icmp eq i64 %14, 0
  br i1 %.not31, label %.loopexit, label %.lr.ph42, !llvm.loop !16

.lr.ph:                                           ; preds = %.preheader, %.lr.ph
  %.037 = phi ptr [ %17, %.lr.ph ], [ %1, %.preheader ]
  %.02336 = phi ptr [ %19, %.lr.ph ], [ %0, %.preheader ]
  %.135 = phi i64 [ %16, %.lr.ph ], [ %2, %.preheader ]
  %16 = add i64 %.135, -1
  %17 = getelementptr inbounds nuw i8, ptr %.037, i64 1
  %18 = load i8, ptr %.037, align 1, !tbaa !3
  %19 = getelementptr inbounds nuw i8, ptr %.02336, i64 1
  store i8 %18, ptr %.02336, align 1, !tbaa !3
  %.not = icmp eq i64 %16, 0
  br i1 %.not, label %.loopexit, label %.lr.ph, !llvm.loop !17

.loopexit:                                        ; preds = %.lr.ph, %.lr.ph42, %.preheader, %12, %8
  ret ptr %0
}